; Function Attrs: mustprogress uwtable
define hidden noundef zeroext i1 @_ZN4cvc58internal6theory11quantifiers11SynthFinder9incrementEv(ptr nocapture noundef nonnull readonly align 8 dereferenceable(120) %this) local_unnamed_addr #3 align 2 {
entry:
  %d_enum = getelementptr inbounds i8, ptr %this, i64 64
  %0 = load ptr, ptr %d_enum, align 8
  %vtable = load ptr, ptr %0, align 8
  %vfn = getelementptr inbounds i8, ptr %vtable, i64 32
  %1 = load ptr, ptr %vfn, align 8
  %call2 = tail call noundef zeroext i1 %1(ptr noundef nonnull align 8 dereferenceable(344) %0)
  ret i1 %call2
}